ccopy_reg
_reconstructor
p0
(cgoogle.oauth2.credentials
Credentials
p1
c__builtin__
object
p2
Ntp3
Rp4
(dp5
S'_quota_project_id'
p6
NsS'_token_uri'
p7
Vhttps://oauth2.googleapis.com/token
p8
sS'_client_secret'
p9
VWpCa0CJdIkA_emb3_JaaueVV
p10
sS'_id_token'
p11
NsS'token'
p12
Vya29.a0AfH6SMC5EdSUmY-bqogwGBSre0qBWxbF0s5MEubtSSu0OuAuuW15IvWiCzSsjFdKLlfAcaV5Fhn7EhFSb3r1y-_X5A5OC6h34y67j87_CHtik8ysnCok6tqzUpOWDpyUiRcjxeOKB9YIF42HLBUP4DwrkMAr3VgMVLyT
p13
sS'_refresh_token'
p14
V1//06TesdAys7K1eCgYIARAAGAYSNwF-L9Ir-qprt0lZ6GlCRNPuxfglEFTdWKHMb_aSAF_0Ar_AVZ7VFbJsuw0eO1pKEghqU_uLVbU
p15
sS'_scopes'
p16
(lp17
S'https://www.googleapis.com/auth/spreadsheets.readonly'
p18
asS'_client_id'
p19
V142726784939-rtmrcp2k3rt6bq3u915f9lifn2deh3ce.apps.googleusercontent.com
p20
sS'expiry'
p21
cdatetime
datetime
p22
(S'\x07\xe4\t\x0e\x08\n\x0b\x0c\x84G'
p23
tp24
Rp25
sb.