ccopy_reg
_reconstructor
p0
(cgoogle.oauth2.credentials
Credentials
p1
c__builtin__
object
p2
Ntp3
Rp4
(dp5
S'_quota_project_id'
p6
NsS'_token_uri'
p7
Vhttps://oauth2.googleapis.com/token
p8
sS'_client_secret'
p9
VWpCa0CJdIkA_emb3_JaaueVV
p10
sS'_id_token'
p11
NsS'token'
p12
Vya29.A0AfH6SMAL6qchZCMpBuG0euvwPUigA5MvBI-jx8PIwjETvlqU48c732e9es9OurP2RI5goAJ0DHhClofXJHAxWXA79RDsaGjrPNrWAqJ-F1D10m05lT5fsH1kHUsualMFH-_2AIXhuNkCRQxBNDP1ty5_xNxo6Nn3CMyNGASMp4ZQgA
p13
sS'_refresh_token'
p14
V1//06TesdAys7K1eCgYIARAAGAYSNwF-L9Ir-qprt0lZ6GlCRNPuxfglEFTdWKHMb_aSAF_0Ar_AVZ7VFbJsuw0eO1pKEghqU_uLVbU
p15
sS'_scopes'
p16
(lp17
S'https://www.googleapis.com/auth/spreadsheets.readonly'
p18
asS'_client_id'
p19
V142726784939-rtmrcp2k3rt6bq3u915f9lifn2deh3ce.apps.googleusercontent.com
p20
sS'expiry'
p21
cdatetime
datetime
p22
(S'\x07\xe4\x0b\x02\x03\x1c\x02\x06Z\x16'
p23
tp24
Rp25
sb.